target datalayout = "e-m:e-p270:32:32-p271:32:32-p272:64:64-i64:64-i128:128-f80:128-n8:16:32:64-S128"
target triple = "x86_64-pc-linux-gnu"

%struct.IpvideoContext = type { ptr, %struct.HpelDSPContext, ptr, ptr, ptr, ptr, ptr, i32, ptr, i32, i32, %struct.GetByteContext, %struct.GetByteContext, ptr, i32, i32, i32, [256 x i32] }
%struct.HpelDSPContext = type { [4 x [4 x ptr]], [4 x [4 x ptr]], [4 x [4 x ptr]], [4 x ptr] }
%struct.GetByteContext = type { ptr, ptr, ptr }

@.str.21 = private unnamed_addr constant [32 x i8] c"too little data for opcode 0x7\0A\00", align 1

; Function Attrs: alwaysinline nounwind uwtable
define internal i32 @bytestream_get_le16(ptr noundef %0) #4 {
  %2 = alloca ptr, align 8
  store ptr %0, ptr %2, align 8, !tbaa !94
  %3 = load ptr, ptr %2, align 8, !tbaa !94
  %4 = load ptr, ptr %3, align 8, !tbaa !59
  %5 = getelementptr inbounds i8, ptr %4, i64 2
  store ptr %5, ptr %3, align 8, !tbaa !59
  %6 = load ptr, ptr %2, align 8, !tbaa !94
  %7 = load ptr, ptr %6, align 8, !tbaa !59
  %8 = getelementptr inbounds i8, ptr %7, i64 -2
  %9 = load i16, ptr %8, align 1, !tbaa !62
  %10 = zext i16 %9 to i32
  ret i32 %10
}

; Function Attrs: alwaysinline nounwind uwtable
define internal i32 @bytestream_get_byte(ptr noundef %0) #4 {
  %2 = alloca ptr, align 8
  store ptr %0, ptr %2, align 8, !tbaa !94
  %3 = load ptr, ptr %2, align 8, !tbaa !94
  %4 = load ptr, ptr %3, align 8, !tbaa !59
  %5 = getelementptr inbounds i8, ptr %4, i64 1
  store ptr %5, ptr %3, align 8, !tbaa !59
  %6 = load ptr, ptr %2, align 8, !tbaa !94
  %7 = load ptr, ptr %6, align 8, !tbaa !59
  %8 = getelementptr inbounds i8, ptr %7, i64 -1
  %9 = getelementptr inbounds i8, ptr %8, i64 0
  %10 = load i8, ptr %9, align 1, !tbaa !62
  %11 = zext i8 %10 to i32
  ret i32 %11
}

; Function Attrs: alwaysinline nounwind uwtable
define internal i32 @bytestream2_get_le16u(ptr noundef %0) #4 {
  %2 = alloca ptr, align 8
  store ptr %0, ptr %2, align 8, !tbaa !67
  %3 = load ptr, ptr %2, align 8, !tbaa !67
  %4 = getelementptr inbounds nuw %struct.GetByteContext, ptr %3, i32 0, i32 0
  %5 = call i32 @bytestream_get_le16(ptr noundef %4)
  ret i32 %5
}

; Function Attrs: alwaysinline nounwind uwtable
define internal i32 @bytestream2_get_byteu(ptr noundef %0) #4 {
  %2 = alloca ptr, align 8
  store ptr %0, ptr %2, align 8, !tbaa !67
  %3 = load ptr, ptr %2, align 8, !tbaa !67
  %4 = getelementptr inbounds nuw %struct.GetByteContext, ptr %3, i32 0, i32 0
  %5 = call i32 @bytestream_get_byte(ptr noundef %4)
  ret i32 %5
}

; Function Attrs: alwaysinline nounwind uwtable
define internal i32 @bytestream2_get_le16(ptr noundef %0) #4 {
  %2 = alloca i32, align 4
  %3 = alloca ptr, align 8
  store ptr %0, ptr %3, align 8, !tbaa !67
  %4 = load ptr, ptr %3, align 8, !tbaa !67
  %5 = getelementptr inbounds nuw %struct.GetByteContext, ptr %4, i32 0, i32 1
  %6 = load ptr, ptr %5, align 8, !tbaa !71
  %7 = load ptr, ptr %3, align 8, !tbaa !67
  %8 = getelementptr inbounds nuw %struct.GetByteContext, ptr %7, i32 0, i32 0
  %9 = load ptr, ptr %8, align 8, !tbaa !69
  %10 = ptrtoint ptr %6 to i64
  %11 = ptrtoint ptr %9 to i64
  %12 = sub i64 %10, %11
  %13 = icmp slt i64 %12, 2
  br i1 %13, label %14, label %20

14:                                               ; preds = %1
  %15 = load ptr, ptr %3, align 8, !tbaa !67
  %16 = getelementptr inbounds nuw %struct.GetByteContext, ptr %15, i32 0, i32 1
  %17 = load ptr, ptr %16, align 8, !tbaa !71
  %18 = load ptr, ptr %3, align 8, !tbaa !67
  %19 = getelementptr inbounds nuw %struct.GetByteContext, ptr %18, i32 0, i32 0
  store ptr %17, ptr %19, align 8, !tbaa !69
  store i32 0, ptr %2, align 4
  br label %23

20:                                               ; preds = %1
  %21 = load ptr, ptr %3, align 8, !tbaa !67
  %22 = call i32 @bytestream2_get_le16u(ptr noundef %21)
  store i32 %22, ptr %2, align 4
  br label %23

23:                                               ; preds = %20, %14
  %24 = load i32, ptr %2, align 4
  ret i32 %24
}

; Function Attrs: alwaysinline nounwind uwtable
define internal i32 @bytestream2_get_byte(ptr noundef %0) #4 {
  %2 = alloca i32, align 4
  %3 = alloca ptr, align 8
  store ptr %0, ptr %3, align 8, !tbaa !67
  %4 = load ptr, ptr %3, align 8, !tbaa !67
  %5 = getelementptr inbounds nuw %struct.GetByteContext, ptr %4, i32 0, i32 1
  %6 = load ptr, ptr %5, align 8, !tbaa !71
  %7 = load ptr, ptr %3, align 8, !tbaa !67
  %8 = getelementptr inbounds nuw %struct.GetByteContext, ptr %7, i32 0, i32 0
  %9 = load ptr, ptr %8, align 8, !tbaa !69
  %10 = ptrtoint ptr %6 to i64
  %11 = ptrtoint ptr %9 to i64
  %12 = sub i64 %10, %11
  %13 = icmp slt i64 %12, 1
  br i1 %13, label %14, label %20

14:                                               ; preds = %1
  %15 = load ptr, ptr %3, align 8, !tbaa !67
  %16 = getelementptr inbounds nuw %struct.GetByteContext, ptr %15, i32 0, i32 1
  %17 = load ptr, ptr %16, align 8, !tbaa !71
  %18 = load ptr, ptr %3, align 8, !tbaa !67
  %19 = getelementptr inbounds nuw %struct.GetByteContext, ptr %18, i32 0, i32 0
  store ptr %17, ptr %19, align 8, !tbaa !69
  store i32 0, ptr %2, align 4
  br label %23

20:                                               ; preds = %1
  %21 = load ptr, ptr %3, align 8, !tbaa !67
  %22 = call i32 @bytestream2_get_byteu(ptr noundef %21)
  store i32 %22, ptr %2, align 4
  br label %23

23:                                               ; preds = %20, %14
  %24 = load i32, ptr %2, align 4
  ret i32 %24
}

; Function Attrs: alwaysinline nounwind uwtable
define internal i32 @bytestream2_get_bytes_left(ptr noundef %0) #4 {
  %2 = alloca ptr, align 8
  store ptr %0, ptr %2, align 8, !tbaa !67
  %3 = load ptr, ptr %2, align 8, !tbaa !67
  %4 = getelementptr inbounds nuw %struct.GetByteContext, ptr %3, i32 0, i32 1
  %5 = load ptr, ptr %4, align 8, !tbaa !71
  %6 = load ptr, ptr %2, align 8, !tbaa !67
  %7 = getelementptr inbounds nuw %struct.GetByteContext, ptr %6, i32 0, i32 0
  %8 = load ptr, ptr %7, align 8, !tbaa !69
  %9 = ptrtoint ptr %5 to i64
  %10 = ptrtoint ptr %8 to i64
  %11 = sub i64 %9, %10
  %12 = trunc i64 %11 to i32
  ret i32 %12
}

; Function Attrs: nounwind uwtable
define internal i32 @ipvideo_decode_block_opcode_0x7(ptr noundef %0, ptr noundef %1) #1 {
  %3 = alloca i32, align 4
  %4 = alloca ptr, align 8
  %5 = alloca ptr, align 8
  %6 = alloca i32, align 4
  %7 = alloca i32, align 4
  %8 = alloca [2 x i8], align 1
  %9 = alloca i32, align 4
  %10 = alloca i32, align 4
  store ptr %0, ptr %4, align 8, !tbaa !29
  store ptr %1, ptr %5, align 8, !tbaa !53
  call void @llvm.lifetime.start.p0(i64 4, ptr %6) #11
  call void @llvm.lifetime.start.p0(i64 4, ptr %7) #11
  call void @llvm.lifetime.start.p0(i64 2, ptr %8) #11
  call void @llvm.lifetime.start.p0(i64 4, ptr %9) #11
  %11 = load ptr, ptr %4, align 8, !tbaa !29
  %12 = getelementptr inbounds nuw %struct.IpvideoContext, ptr %11, i32 0, i32 11
  %13 = call i32 @bytestream2_get_bytes_left(ptr noundef %12)
  %14 = icmp slt i32 %13, 4
  br i1 %14, label %15, label %19

15:                                               ; preds = %2
  %16 = load ptr, ptr %4, align 8, !tbaa !29
  %17 = getelementptr inbounds nuw %struct.IpvideoContext, ptr %16, i32 0, i32 0
  %18 = load ptr, ptr %17, align 8, !tbaa !31
  call void (ptr, i32, ptr, ...) @av_log(ptr noundef %18, i32 noundef 16, ptr noundef @.str.21)
  store i32 -1094995529, ptr %3, align 4
  store i32 1, ptr %10, align 4
  br label %146

19:                                               ; preds = %2
  %20 = load ptr, ptr %4, align 8, !tbaa !29
  %21 = getelementptr inbounds nuw %struct.IpvideoContext, ptr %20, i32 0, i32 11
  %22 = call i32 @bytestream2_get_byte(ptr noundef %21)
  %23 = trunc i32 %22 to i8
  %24 = getelementptr inbounds [2 x i8], ptr %8, i64 0, i64 0
  store i8 %23, ptr %24, align 1, !tbaa !62
  %25 = load ptr, ptr %4, align 8, !tbaa !29
  %26 = getelementptr inbounds nuw %struct.IpvideoContext, ptr %25, i32 0, i32 11
  %27 = call i32 @bytestream2_get_byte(ptr noundef %26)
  %28 = trunc i32 %27 to i8
  %29 = getelementptr inbounds [2 x i8], ptr %8, i64 0, i64 1
  store i8 %28, ptr %29, align 1, !tbaa !62
  %30 = getelementptr inbounds [2 x i8], ptr %8, i64 0, i64 0
  %31 = load i8, ptr %30, align 1, !tbaa !62
  %32 = zext i8 %31 to i32
  %33 = getelementptr inbounds [2 x i8], ptr %8, i64 0, i64 1
  %34 = load i8, ptr %33, align 1, !tbaa !62
  %35 = zext i8 %34 to i32
  %36 = icmp sle i32 %32, %35
  br i1 %36, label %37, label %75

37:                                               ; preds = %19
  store i32 0, ptr %7, align 4, !tbaa !61
  br label %38

38:                                               ; preds = %71, %37
  %39 = load i32, ptr %7, align 4, !tbaa !61
  %40 = icmp slt i32 %39, 8
  br i1 %40, label %41, label %74

41:                                               ; preds = %38
  %42 = load ptr, ptr %4, align 8, !tbaa !29
  %43 = getelementptr inbounds nuw %struct.IpvideoContext, ptr %42, i32 0, i32 11
  %44 = call i32 @bytestream2_get_byte(ptr noundef %43)
  %45 = or i32 %44, 256
  store i32 %45, ptr %9, align 4, !tbaa !61
  br label %46

46:                                               ; preds = %59, %41
  %47 = load i32, ptr %9, align 4, !tbaa !61
  %48 = icmp ne i32 %47, 1
  br i1 %48, label %49, label %62

49:                                               ; preds = %46
  %50 = load i32, ptr %9, align 4, !tbaa !61
  %51 = and i32 %50, 1
  %52 = zext i32 %51 to i64
  %53 = getelementptr inbounds nuw [2 x i8], ptr %8, i64 0, i64 %52
  %54 = load i8, ptr %53, align 1, !tbaa !62
  %55 = load ptr, ptr %4, align 8, !tbaa !29
  %56 = getelementptr inbounds nuw %struct.IpvideoContext, ptr %55, i32 0, i32 13
  %57 = load ptr, ptr %56, align 8, !tbaa !77
  %58 = getelementptr inbounds nuw i8, ptr %57, i32 1
  store ptr %58, ptr %56, align 8, !tbaa !77
  store i8 %54, ptr %57, align 1, !tbaa !62
  br label %59

59:                                               ; preds = %49
  %60 = load i32, ptr %9, align 4, !tbaa !61
  %61 = lshr i32 %60, 1
  store i32 %61, ptr %9, align 4, !tbaa !61
  br label %46, !llvm.loop !105

62:                                               ; preds = %46
  %63 = load ptr, ptr %4, align 8, !tbaa !29
  %64 = getelementptr inbounds nuw %struct.IpvideoContext, ptr %63, i32 0, i32 14
  %65 = load i32, ptr %64, align 8, !tbaa !73
  %66 = load ptr, ptr %4, align 8, !tbaa !29
  %67 = getelementptr inbounds nuw %struct.IpvideoContext, ptr %66, i32 0, i32 13
  %68 = load ptr, ptr %67, align 8, !tbaa !77
  %69 = sext i32 %65 to i64
  %70 = getelementptr inbounds i8, ptr %68, i64 %69
  store ptr %70, ptr %67, align 8, !tbaa !77
  br label %71

71:                                               ; preds = %62
  %72 = load i32, ptr %7, align 4, !tbaa !61
  %73 = add nsw i32 %72, 1
  store i32 %73, ptr %7, align 4, !tbaa !61
  br label %38, !llvm.loop !106

74:                                               ; preds = %38
  br label %145

75:                                               ; preds = %19
  %76 = load ptr, ptr %4, align 8, !tbaa !29
  %77 = getelementptr inbounds nuw %struct.IpvideoContext, ptr %76, i32 0, i32 11
  %78 = call i32 @bytestream2_get_le16(ptr noundef %77)
  store i32 %78, ptr %9, align 4, !tbaa !61
  store i32 0, ptr %7, align 4, !tbaa !61
  br label %79

79:                                               ; preds = %141, %75
  %80 = load i32, ptr %7, align 4, !tbaa !61
  %81 = icmp slt i32 %80, 8
  br i1 %81, label %82, label %144

82:                                               ; preds = %79
  store i32 0, ptr %6, align 4, !tbaa !61
  br label %83

83:                                               ; preds = %126, %82
  %84 = load i32, ptr %6, align 4, !tbaa !61
  %85 = icmp slt i32 %84, 8
  br i1 %85, label %86, label %131

86:                                               ; preds = %83
  %87 = load i32, ptr %9, align 4, !tbaa !61
  %88 = and i32 %87, 1
  %89 = zext i32 %88 to i64
  %90 = getelementptr inbounds nuw [2 x i8], ptr %8, i64 0, i64 %89
  %91 = load i8, ptr %90, align 1, !tbaa !62
  %92 = load ptr, ptr %4, align 8, !tbaa !29
  %93 = getelementptr inbounds nuw %struct.IpvideoContext, ptr %92, i32 0, i32 13
  %94 = load ptr, ptr %93, align 8, !tbaa !77
  %95 = load i32, ptr %6, align 4, !tbaa !61
  %96 = add nsw i32 %95, 1
  %97 = load ptr, ptr %4, align 8, !tbaa !29
  %98 = getelementptr inbounds nuw %struct.IpvideoContext, ptr %97, i32 0, i32 15
  %99 = load i32, ptr %98, align 4, !tbaa !72
  %100 = add nsw i32 %96, %99
  %101 = sext i32 %100 to i64
  %102 = getelementptr inbounds i8, ptr %94, i64 %101
  store i8 %91, ptr %102, align 1, !tbaa !62
  %103 = load ptr, ptr %4, align 8, !tbaa !29
  %104 = getelementptr inbounds nuw %struct.IpvideoContext, ptr %103, i32 0, i32 13
  %105 = load ptr, ptr %104, align 8, !tbaa !77
  %106 = load i32, ptr %6, align 4, !tbaa !61
  %107 = load ptr, ptr %4, align 8, !tbaa !29
  %108 = getelementptr inbounds nuw %struct.IpvideoContext, ptr %107, i32 0, i32 15
  %109 = load i32, ptr %108, align 4, !tbaa !72
  %110 = add nsw i32 %106, %109
  %111 = sext i32 %110 to i64
  %112 = getelementptr inbounds i8, ptr %105, i64 %111
  store i8 %91, ptr %112, align 1, !tbaa !62
  %113 = load ptr, ptr %4, align 8, !tbaa !29
  %114 = getelementptr inbounds nuw %struct.IpvideoContext, ptr %113, i32 0, i32 13
  %115 = load ptr, ptr %114, align 8, !tbaa !77
  %116 = load i32, ptr %6, align 4, !tbaa !61
  %117 = add nsw i32 %116, 1
  %118 = sext i32 %117 to i64
  %119 = getelementptr inbounds i8, ptr %115, i64 %118
  store i8 %91, ptr %119, align 1, !tbaa !62
  %120 = load ptr, ptr %4, align 8, !tbaa !29
  %121 = getelementptr inbounds nuw %struct.IpvideoContext, ptr %120, i32 0, i32 13
  %122 = load ptr, ptr %121, align 8, !tbaa !77
  %123 = load i32, ptr %6, align 4, !tbaa !61
  %124 = sext i32 %123 to i64
  %125 = getelementptr inbounds i8, ptr %122, i64 %124
  store i8 %91, ptr %125, align 1, !tbaa !62
  br label %126

126:                                              ; preds = %86
  %127 = load i32, ptr %6, align 4, !tbaa !61
  %128 = add nsw i32 %127, 2
  store i32 %128, ptr %6, align 4, !tbaa !61
  %129 = load i32, ptr %9, align 4, !tbaa !61
  %130 = lshr i32 %129, 1
  store i32 %130, ptr %9, align 4, !tbaa !61
  br label %83, !llvm.loop !107

131:                                              ; preds = %83
  %132 = load ptr, ptr %4, align 8, !tbaa !29
  %133 = getelementptr inbounds nuw %struct.IpvideoContext, ptr %132, i32 0, i32 15
  %134 = load i32, ptr %133, align 4, !tbaa !72
  %135 = mul nsw i32 %134, 2
  %136 = load ptr, ptr %4, align 8, !tbaa !29
  %137 = getelementptr inbounds nuw %struct.IpvideoContext, ptr %136, i32 0, i32 13
  %138 = load ptr, ptr %137, align 8, !tbaa !77
  %139 = sext i32 %135 to i64
  %140 = getelementptr inbounds i8, ptr %138, i64 %139
  store ptr %140, ptr %137, align 8, !tbaa !77
  br label %141

141:                                              ; preds = %131
  %142 = load i32, ptr %7, align 4, !tbaa !61
  %143 = add nsw i32 %142, 2
  store i32 %143, ptr %7, align 4, !tbaa !61
  br label %79, !llvm.loop !108

144:                                              ; preds = %79
  br label %145

145:                                              ; preds = %144, %74
  store i32 0, ptr %3, align 4
  store i32 1, ptr %10, align 4
  br label %146

146:                                              ; preds = %145, %15
  call void @llvm.lifetime.end.p0(i64 4, ptr %9) #11
  call void @llvm.lifetime.end.p0(i64 2, ptr %8) #11
  call void @llvm.lifetime.end.p0(i64 4, ptr %7) #11
  call void @llvm.lifetime.end.p0(i64 4, ptr %6) #11
  %147 = load i32, ptr %3, align 4
  ret i32 %147
}