; Function Attrs: nounwind uwtable
define internal range(i32 -1094995529, 1) i32 @ipvideo_decode_block_opcode_0x7(ptr noundef captures(none) %0, ptr readnone captures(none) %1) #1 {
  %3 = alloca [2 x i8], align 1
  call void @llvm.lifetime.start.p0(i64 2, ptr nonnull %3) #9
  %4 = getelementptr inbounds nuw i8, ptr %0, i64 488
  %5 = getelementptr inbounds nuw i8, ptr %0, i64 496
  %6 = load ptr, ptr %5, align 8, !tbaa !60
  %7 = load ptr, ptr %4, align 8, !tbaa !58
  %8 = ptrtoint ptr %6 to i64
  %9 = ptrtoint ptr %7 to i64
  %10 = sub i64 %8, %9
  %11 = trunc i64 %10 to i32
  %12 = icmp slt i32 %11, 4
  br i1 %12, label %13, label %15

13:                                               ; preds = %2
  %14 = load ptr, ptr %0, align 8, !tbaa !27
  tail call void (ptr, i32, ptr, ...) @av_log(ptr noundef %14, i32 noundef 16, ptr noundef nonnull @.str.21) #9
  br label %.loopexit

15:                                               ; preds = %2
  %16 = icmp slt i64 %10, 1
  br i1 %16, label %bytestream2_get_byte.exit, label %17

17:                                               ; preds = %15
  %18 = getelementptr inbounds nuw i8, ptr %7, i64 1
  store ptr %18, ptr %4, align 8, !tbaa !53
  %19 = load i8, ptr %7, align 1, !tbaa !54
  %20 = zext i8 %19 to i32
  %.pre = ptrtoint ptr %18 to i64
  br label %bytestream2_get_byte.exit

bytestream2_get_byte.exit:                        ; preds = %15, %17
  %.pre-phi = phi i64 [ %.pre, %17 ], [ %8, %15 ]
  %21 = phi ptr [ %18, %17 ], [ %6, %15 ]
  %.0.i37 = phi i32 [ %20, %17 ], [ 0, %15 ]
  %22 = trunc nuw i32 %.0.i37 to i8
  store i8 %22, ptr %3, align 1, !tbaa !54
  %23 = sub i64 %8, %.pre-phi
  %24 = icmp slt i64 %23, 1
  br i1 %24, label %25, label %26

25:                                               ; preds = %bytestream2_get_byte.exit
  store ptr %6, ptr %4, align 8, !tbaa !58
  br label %bytestream2_get_byte.exit39

26:                                               ; preds = %bytestream2_get_byte.exit
  %27 = getelementptr inbounds nuw i8, ptr %21, i64 1
  store ptr %27, ptr %4, align 8, !tbaa !53
  %28 = load i8, ptr %21, align 1, !tbaa !54
  %29 = zext i8 %28 to i32
  br label %bytestream2_get_byte.exit39

bytestream2_get_byte.exit39:                      ; preds = %25, %26
  %30 = phi ptr [ %6, %25 ], [ %27, %26 ]
  %.0.i38 = phi i32 [ 0, %25 ], [ %29, %26 ]
  %31 = trunc nuw i32 %.0.i38 to i8
  %32 = getelementptr inbounds nuw i8, ptr %3, i64 1
  store i8 %31, ptr %32, align 1, !tbaa !54
  %.not = icmp samesign ugt i32 %.0.i37, %.0.i38
  br i1 %.not, label %61, label %.preheader42

.preheader42:                                     ; preds = %bytestream2_get_byte.exit39
  %33 = getelementptr inbounds nuw i8, ptr %0, i64 536
  %34 = getelementptr inbounds nuw i8, ptr %0, i64 544
  br label %35

35:                                               ; preds = %.preheader42, %55
  %.03245 = phi i32 [ 0, %.preheader42 ], [ %60, %55 ]
  %36 = load ptr, ptr %5, align 8, !tbaa !60
  %37 = load ptr, ptr %4, align 8, !tbaa !58
  %38 = ptrtoint ptr %36 to i64
  %39 = ptrtoint ptr %37 to i64
  %40 = sub i64 %38, %39
  %41 = icmp slt i64 %40, 1
  br i1 %41, label %42, label %43

42:                                               ; preds = %35
  store ptr %36, ptr %4, align 8, !tbaa !58
  br label %bytestream2_get_byte.exit41.preheader

43:                                               ; preds = %35
  %44 = getelementptr inbounds nuw i8, ptr %37, i64 1
  store ptr %44, ptr %4, align 8, !tbaa !53
  %45 = load i8, ptr %37, align 1, !tbaa !54
  %46 = zext i8 %45 to i32
  %47 = or disjoint i32 %46, 256
  br label %bytestream2_get_byte.exit41.preheader

bytestream2_get_byte.exit41.preheader:            ; preds = %42, %43
  %.044.ph = phi i32 [ %47, %43 ], [ 256, %42 ]
  br label %bytestream2_get_byte.exit41

bytestream2_get_byte.exit41:                      ; preds = %bytestream2_get_byte.exit41.preheader, %bytestream2_get_byte.exit41
  %.044 = phi i32 [ %54, %bytestream2_get_byte.exit41 ], [ %.044.ph, %bytestream2_get_byte.exit41.preheader ]
  %48 = and i32 %.044, 1
  %49 = zext nneg i32 %48 to i64
  %50 = getelementptr inbounds nuw [2 x i8], ptr %3, i64 0, i64 %49
  %51 = load i8, ptr %50, align 1, !tbaa !54
  %52 = load ptr, ptr %33, align 8, !tbaa !67
  %53 = getelementptr inbounds nuw i8, ptr %52, i64 1
  store ptr %53, ptr %33, align 8, !tbaa !67
  store i8 %51, ptr %52, align 1, !tbaa !54
  %54 = lshr i32 %.044, 1
  %.not36 = icmp eq i32 %54, 1
  br i1 %.not36, label %55, label %bytestream2_get_byte.exit41, !llvm.loop !87

55:                                               ; preds = %bytestream2_get_byte.exit41
  %56 = load i32, ptr %34, align 8, !tbaa !64
  %57 = load ptr, ptr %33, align 8, !tbaa !67
  %58 = sext i32 %56 to i64
  %59 = getelementptr inbounds i8, ptr %57, i64 %58
  store ptr %59, ptr %33, align 8, !tbaa !67
  %60 = add nuw nsw i32 %.03245, 1
  %exitcond.not = icmp eq i32 %60, 8
  br i1 %exitcond.not, label %.loopexit, label %35, !llvm.loop !88

61:                                               ; preds = %bytestream2_get_byte.exit39
  %62 = ptrtoint ptr %30 to i64
  %63 = sub i64 %8, %62
  %64 = icmp slt i64 %63, 2
  br i1 %64, label %65, label %66

65:                                               ; preds = %61
  store ptr %6, ptr %4, align 8, !tbaa !58
  br label %bytestream2_get_le16.exit

66:                                               ; preds = %61
  %67 = getelementptr inbounds nuw i8, ptr %30, i64 2
  store ptr %67, ptr %4, align 8, !tbaa !53
  %68 = load i16, ptr %30, align 1, !tbaa !54
  %69 = zext i16 %68 to i32
  br label %bytestream2_get_le16.exit

bytestream2_get_le16.exit:                        ; preds = %65, %66
  %.0.i = phi i32 [ 0, %65 ], [ %69, %66 ]
  %70 = getelementptr inbounds nuw i8, ptr %0, i64 536
  %71 = getelementptr inbounds nuw i8, ptr %0, i64 548
  br label %.preheader

.preheader:                                       ; preds = %bytestream2_get_le16.exit, %96
  %.149 = phi i32 [ %.0.i, %bytestream2_get_le16.exit ], [ %94, %96 ]
  %.13348 = phi i32 [ 0, %bytestream2_get_le16.exit ], [ %102, %96 ]
  br label %72

72:                                               ; preds = %.preheader, %72
  %indvars.iv = phi i64 [ 0, %.preheader ], [ %indvars.iv.next, %72 ]
  %.247 = phi i32 [ %.149, %.preheader ], [ %94, %72 ]
  %73 = and i32 %.247, 1
  %74 = zext nneg i32 %73 to i64
  %75 = getelementptr inbounds nuw [2 x i8], ptr %3, i64 0, i64 %74
  %76 = load i8, ptr %75, align 1, !tbaa !54
  %77 = load ptr, ptr %70, align 8, !tbaa !67
  %78 = or disjoint i64 %indvars.iv, 1
  %79 = load i32, ptr %71, align 4, !tbaa !63
  %80 = trunc nuw nsw i64 %78 to i32
  %81 = add nsw i32 %79, %80
  %82 = sext i32 %81 to i64
  %83 = getelementptr inbounds i8, ptr %77, i64 %82
  store i8 %76, ptr %83, align 1, !tbaa !54
  %84 = load ptr, ptr %70, align 8, !tbaa !67
  %85 = load i32, ptr %71, align 4, !tbaa !63
  %86 = trunc nuw nsw i64 %indvars.iv to i32
  %87 = add nsw i32 %85, %86
  %88 = sext i32 %87 to i64
  %89 = getelementptr inbounds i8, ptr %84, i64 %88
  store i8 %76, ptr %89, align 1, !tbaa !54
  %90 = load ptr, ptr %70, align 8, !tbaa !67
  %91 = getelementptr inbounds nuw i8, ptr %90, i64 %78
  store i8 %76, ptr %91, align 1, !tbaa !54
  %92 = load ptr, ptr %70, align 8, !tbaa !67
  %93 = getelementptr inbounds nuw i8, ptr %92, i64 %indvars.iv
  store i8 %76, ptr %93, align 1, !tbaa !54
  %indvars.iv.next = add nuw nsw i64 %indvars.iv, 2
  %94 = lshr i32 %.247, 1
  %95 = icmp samesign ult i64 %indvars.iv, 6
  br i1 %95, label %72, label %96, !llvm.loop !89

96:                                               ; preds = %72
  %97 = load i32, ptr %71, align 4, !tbaa !63
  %98 = shl nsw i32 %97, 1
  %99 = load ptr, ptr %70, align 8, !tbaa !67
  %100 = sext i32 %98 to i64
  %101 = getelementptr inbounds i8, ptr %99, i64 %100
  store ptr %101, ptr %70, align 8, !tbaa !67
  %102 = add nuw nsw i32 %.13348, 2
  %103 = icmp samesign ult i32 %.13348, 6
  br i1 %103, label %.preheader, label %.loopexit, !llvm.loop !90

.loopexit:                                        ; preds = %55, %96, %13
  %.035 = phi i32 [ -1094995529, %13 ], [ 0, %96 ], [ 0, %55 ]
  call void @llvm.lifetime.end.p0(i64 2, ptr nonnull %3) #9
  ret i32 %.035
}